; Function Attrs: nounwind uwtable
define internal fastcc range(i32 -400, 1) i32 @scan_octal_number(ptr noundef nonnull captures(none) %0, ptr noundef %1, i32 noundef range(i32 0, 2) %2, i32 noundef range(i32 2, 12) %3, ptr noundef readonly captures(none) %4, ptr noundef nonnull writeonly captures(none) %5) unnamed_addr #2 {
  %7 = load ptr, ptr %0, align 8, !tbaa !149
  %8 = icmp ult ptr %7, %1
  br i1 %8, label %.lr.ph, label %._crit_edge

.lr.ph:                                           ; preds = %6
  %9 = getelementptr inbounds nuw i8, ptr %4, i64 32
  %10 = getelementptr inbounds nuw i8, ptr %4, i64 88
  br label %11

11:                                               ; preds = %.lr.ph, %28
  %.03040 = phi ptr [ %7, %.lr.ph ], [ %17, %28 ]
  %.03139 = phi i32 [ 0, %.lr.ph ], [ %29, %28 ]
  %.03238 = phi i32 [ 0, %.lr.ph ], [ %32, %28 ]
  %12 = load ptr, ptr %9, align 8, !tbaa !80
  %13 = tail call i32 %12(ptr noundef %.03040, ptr noundef nonnull %1) #24
  %14 = load ptr, ptr %4, align 8, !tbaa !82
  %15 = tail call i32 %14(ptr noundef %.03040) #24
  %16 = sext i32 %15 to i64
  %17 = getelementptr inbounds i8, ptr %.03040, i64 %16
  %18 = icmp ult i32 %13, 128
  br i1 %18, label %19, label %._crit_edge

19:                                               ; preds = %11
  %20 = load ptr, ptr %10, align 8, !tbaa !170
  %21 = tail call i32 %20(i32 noundef %13, i32 noundef 4) #24
  %22 = icmp ne i32 %21, 0
  %23 = icmp samesign ult i32 %13, 56
  %or.cond = select i1 %22, i1 %23, i1 false
  br i1 %or.cond, label %24, label %._crit_edge

24:                                               ; preds = %19
  %25 = sub nsw i32 47, %13
  %26 = lshr i32 %25, 3
  %27 = icmp ult i32 %26, %.03238
  br i1 %27, label %.loopexit, label %28

28:                                               ; preds = %24
  %29 = add nuw nsw i32 %.03139, 1
  %30 = shl nuw i32 %.03238, 3
  %31 = add i32 %30, -48
  %32 = add i32 %31, %13
  %33 = icmp ult ptr %17, %1
  %34 = icmp samesign ult i32 %29, %3
  %35 = select i1 %33, i1 %34, i1 false
  br i1 %35, label %11, label %._crit_edge, !llvm.loop !181

._crit_edge:                                      ; preds = %28, %19, %11, %6
  %.032.lcssa = phi i32 [ 0, %6 ], [ %.03238, %11 ], [ %.03238, %19 ], [ %32, %28 ]
  %.031.lcssa = phi i32 [ 0, %6 ], [ %.03139, %11 ], [ %.03139, %19 ], [ %29, %28 ]
  %.030.lcssa = phi ptr [ %7, %6 ], [ %.03040, %11 ], [ %.03040, %19 ], [ %17, %28 ]
  %36 = icmp samesign ult i32 %.031.lcssa, %2
  br i1 %36, label %.loopexit, label %37

37:                                               ; preds = %._crit_edge
  store i32 %.032.lcssa, ptr %5, align 4, !tbaa !8
  store ptr %.030.lcssa, ptr %0, align 8, !tbaa !149
  br label %.loopexit

.loopexit:                                        ; preds = %24, %._crit_edge, %37
  %.0 = phi i32 [ 0, %37 ], [ -400, %._crit_edge ], [ -200, %24 ]
  ret i32 %.0
}